target datalayout = "e-m:e-p270:32:32-p271:32:32-p272:64:64-i64:64-i128:128-f80:128-n8:16:32:64-S128"
target triple = "x86_64-pc-linux-gnu"

; Function Attrs: nounwind sspstrong uwtable
define dso_local void @virtio_pci_set_guest_notifier_fd_handler(ptr noundef %0, ptr noundef %1, i32 noundef %2, i1 noundef zeroext %3, i1 noundef zeroext %4) #0 {
  %6 = alloca ptr, align 8
  %7 = alloca ptr, align 8
  %8 = alloca i32, align 4
  %9 = alloca i8, align 1
  %10 = alloca i8, align 1
  store ptr %0, ptr %6, align 8
  store ptr %1, ptr %7, align 8
  store i32 %2, ptr %8, align 4
  %11 = zext i1 %3 to i8
  store i8 %11, ptr %9, align 1
  %12 = zext i1 %4 to i8
  store i8 %12, ptr %10, align 1
  %13 = load i32, ptr %8, align 4
  %14 = icmp eq i32 %13, -1
  br i1 %14, label %15, label %21

15:                                               ; preds = %5
  %16 = load ptr, ptr %6, align 8
  %17 = load i8, ptr %9, align 1, !range !7, !noundef !8
  %18 = trunc i8 %17 to i1
  %19 = load i8, ptr %10, align 1, !range !7, !noundef !8
  %20 = trunc i8 %19 to i1
  call void @virtio_config_set_guest_notifier_fd_handler(ptr noundef %16, i1 noundef zeroext %18, i1 noundef zeroext %20)
  br label %27

21:                                               ; preds = %5
  %22 = load ptr, ptr %7, align 8
  %23 = load i8, ptr %9, align 1, !range !7, !noundef !8
  %24 = trunc i8 %23 to i1
  %25 = load i8, ptr %10, align 1, !range !7, !noundef !8
  %26 = trunc i8 %25 to i1
  call void @virtio_queue_set_guest_notifier_fd_handler(ptr noundef %22, i1 noundef zeroext %24, i1 noundef zeroext %26)
  br label %27

27:                                               ; preds = %21, %15
  ret void
}