; Function Attrs: nounwind sspstrong uwtable
define dso_local void @virtio_pci_set_guest_notifier_fd_handler(ptr noundef %0, ptr noundef %1, i32 noundef %2, i1 noundef zeroext %3, i1 noundef zeroext %4) local_unnamed_addr #0 {
  %6 = icmp eq i32 %2, -1
  br i1 %6, label %7, label %8

7:                                                ; preds = %5
  tail call void @virtio_config_set_guest_notifier_fd_handler(ptr noundef %0, i1 noundef zeroext %3, i1 noundef zeroext %4) #15
  br label %9

8:                                                ; preds = %5
  tail call void @virtio_queue_set_guest_notifier_fd_handler(ptr noundef %1, i1 noundef zeroext %3, i1 noundef zeroext %4) #15
  br label %9

9:                                                ; preds = %8, %7
  ret void
}